; Function Attrs: mustprogress nounwind uwtable
define hidden void @_ZN13StubGenerator11ev_load_keyE11XMMRegister8RegisteriS0_(ptr nocapture noundef nonnull readonly align 8 dereferenceable(24) %0, i32 %1, i32 %2, i32 noundef %3, i32 %4) local_unnamed_addr #0 align 2 {
  %6 = alloca %class.Address, align 8
  %7 = getelementptr inbounds i8, ptr %0, i64 16
  %8 = load ptr, ptr %7, align 8
  store i32 %2, ptr %6, align 8
  %9 = getelementptr inbounds i8, ptr %6, i64 4
  store i32 -1, ptr %9, align 4
  %10 = getelementptr inbounds i8, ptr %6, i64 8
  store i32 -1, ptr %10, align 8
  %11 = getelementptr inbounds i8, ptr %6, i64 12
  store i32 -1, ptr %11, align 4
  %12 = getelementptr inbounds i8, ptr %6, i64 16
  store i32 %3, ptr %12, align 8
  %13 = getelementptr inbounds i8, ptr %6, i64 20
  store i8 0, ptr %13, align 4
  %14 = getelementptr inbounds i8, ptr %6, i64 24
  store ptr getelementptr inbounds inrange(-16, 72) (i8, ptr @_ZTV10Relocation, i64 16), ptr %14, align 8
  %15 = getelementptr inbounds i8, ptr %6, i64 32
  store ptr null, ptr %15, align 8
  %16 = getelementptr inbounds i8, ptr %6, i64 40
  store i32 0, ptr %16, align 8
  call void @_ZN14MacroAssembler6movdquE11XMMRegister7Address(ptr noundef nonnull align 8 dereferenceable(40) %8, i32 %1, ptr noundef nonnull %6) #7
  %17 = load ptr, ptr %7, align 8
  call void @_ZN9Assembler6pshufbE11XMMRegisterS0_(ptr noundef nonnull align 8 dereferenceable(40) %17, i32 %1, i32 %4) #7
  %18 = load ptr, ptr %7, align 8
  call void @_ZN9Assembler11evshufi64x2E11XMMRegisterS0_S0_ii(ptr noundef nonnull align 8 dereferenceable(40) %18, i32 %1, i32 %1, i32 %1, i32 noundef 0, i32 noundef 2) #7
  ret void
}